target datalayout = "e-m:e-p270:32:32-p271:32:32-p272:64:64-i64:64-i128:128-f80:128-n8:16:32:64-S128"
target triple = "x86_64-pc-linux-gnu"

%union.ListCell = type { ptr }
%struct.Query = type { i32, i32, i32, i64, i8, ptr, i32, i8, i8, i8, i8, i8, i8, i8, i8, i8, i8, i8, ptr, ptr, ptr, ptr, ptr, i32, ptr, ptr, i32, ptr, ptr, ptr, ptr, ptr, i8, ptr, ptr, ptr, ptr, ptr, ptr, ptr, i32, ptr, ptr, ptr, ptr, i32, i32 }
%struct.List = type { i32, i32, i32, ptr, [0 x %union.ListCell] }
%struct.RangeTblEntry = type { i32, ptr, ptr, i32, i32, i8, i8, i32, i32, ptr, ptr, i8, i32, i32, ptr, ptr, ptr, ptr, ptr, i8, ptr, ptr, ptr, i32, i8, ptr, ptr, ptr, ptr, double, ptr, i8, i8, ptr }
%struct.RangeTblRef = type { i32, i32 }
%struct.FromExpr = type { i32, ptr, ptr }
%struct.Node = type { i32 }
%struct.PlannerInfo = type { i32, ptr, ptr, i32, ptr, ptr, ptr, ptr, i32, ptr, ptr, ptr, ptr, ptr, ptr, ptr, ptr, i32, ptr, ptr, ptr, ptr, ptr, i8, ptr, ptr, ptr, ptr, ptr, i32, ptr, ptr, ptr, ptr, ptr, ptr, ptr, i32, ptr, ptr, ptr, i32, ptr, ptr, ptr, ptr, ptr, ptr, [8 x ptr], [8 x ptr], ptr, ptr, ptr, ptr, ptr, ptr, ptr, double, double, double, i32, i8, i8, i8, i8, i8, i8, i8, i32, ptr, ptr, i32, i8, i8, i32, ptr, ptr, ptr, ptr, ptr, ptr, i8, ptr }
%struct.SetOperationStmt = type { i32, i32, i8, ptr, ptr, ptr, ptr, ptr, ptr }

; Function Attrs: inlinehint nounwind uwtable
define internal ptr @list_nth_cell(ptr noundef %0, i32 noundef %1) #3 {
  %3 = alloca ptr, align 8
  %4 = alloca i32, align 4
  store ptr %0, ptr %3, align 8
  store i32 %1, ptr %4, align 4
  %5 = load ptr, ptr %3, align 8
  %6 = getelementptr inbounds nuw %struct.List, ptr %5, i32 0, i32 3
  %7 = load ptr, ptr %6, align 8
  %8 = load i32, ptr %4, align 4
  %9 = sext i32 %8 to i64
  %10 = getelementptr inbounds %union.ListCell, ptr %7, i64 %9
  ret ptr %10
}

; Function Attrs: inlinehint nounwind uwtable
define internal ptr @newNode(i64 noundef %0, i32 noundef %1) #3 {
  %3 = alloca i64, align 8
  %4 = alloca i32, align 4
  %5 = alloca ptr, align 8
  store i64 %0, ptr %3, align 8
  store i32 %1, ptr %4, align 4
  call void @llvm.lifetime.start.p0(i64 8, ptr %5) #8
  %6 = load i64, ptr %3, align 8
  %7 = call ptr @palloc0(i64 noundef %6)
  store ptr %7, ptr %5, align 8
  %8 = load i32, ptr %4, align 4
  %9 = load ptr, ptr %5, align 8
  %10 = getelementptr inbounds nuw %struct.Node, ptr %9, i32 0, i32 0
  store i32 %8, ptr %10, align 4
  %11 = load ptr, ptr %5, align 8
  call void @llvm.lifetime.end.p0(i64 8, ptr %5) #8
  ret ptr %11
}

; Function Attrs: inlinehint nounwind uwtable
define internal i32 @list_length(ptr noundef %0) #3 {
  %2 = alloca ptr, align 8
  store ptr %0, ptr %2, align 8
  %3 = load ptr, ptr %2, align 8
  %4 = icmp ne ptr %3, null
  br i1 %4, label %5, label %9

5:                                                ; preds = %1
  %6 = load ptr, ptr %2, align 8
  %7 = getelementptr inbounds nuw %struct.List, ptr %6, i32 0, i32 1
  %8 = load i32, ptr %7, align 4
  br label %10

9:                                                ; preds = %1
  br label %10

10:                                               ; preds = %9, %5
  %11 = phi i32 [ %8, %5 ], [ 0, %9 ]
  ret i32 %11
}

; Function Attrs: inlinehint nounwind uwtable
define internal ptr @list_nth(ptr noundef %0, i32 noundef %1) #3 {
  %3 = alloca ptr, align 8
  %4 = alloca i32, align 4
  store ptr %0, ptr %3, align 8
  store i32 %1, ptr %4, align 4
  %5 = load ptr, ptr %3, align 8
  %6 = load i32, ptr %4, align 4
  %7 = call ptr @list_nth_cell(ptr noundef %5, i32 noundef %6)
  %8 = load ptr, ptr %7, align 8
  ret ptr %8
}

; Function Attrs: nounwind uwtable
define dso_local void @flatten_simple_union_all(ptr noundef %0) #0 {
  %2 = alloca ptr, align 8
  %3 = alloca ptr, align 8
  %4 = alloca ptr, align 8
  %5 = alloca ptr, align 8
  %6 = alloca i32, align 4
  %7 = alloca ptr, align 8
  %8 = alloca i32, align 4
  %9 = alloca ptr, align 8
  %10 = alloca ptr, align 8
  %11 = alloca i32, align 4
  %12 = alloca %union.ListCell, align 8
  store ptr %0, ptr %2, align 8
  call void @llvm.lifetime.start.p0(i64 8, ptr %3) #8
  %13 = load ptr, ptr %2, align 8
  %14 = getelementptr inbounds nuw %struct.PlannerInfo, ptr %13, i32 0, i32 1
  %15 = load ptr, ptr %14, align 8
  store ptr %15, ptr %3, align 8
  call void @llvm.lifetime.start.p0(i64 8, ptr %4) #8
  call void @llvm.lifetime.start.p0(i64 8, ptr %5) #8
  call void @llvm.lifetime.start.p0(i64 4, ptr %6) #8
  call void @llvm.lifetime.start.p0(i64 8, ptr %7) #8
  call void @llvm.lifetime.start.p0(i64 4, ptr %8) #8
  call void @llvm.lifetime.start.p0(i64 8, ptr %9) #8
  call void @llvm.lifetime.start.p0(i64 8, ptr %10) #8
  %16 = load ptr, ptr %3, align 8
  %17 = getelementptr inbounds nuw %struct.Query, ptr %16, i32 0, i32 42
  %18 = load ptr, ptr %17, align 8
  store ptr %18, ptr %4, align 8
  %19 = load ptr, ptr %2, align 8
  %20 = getelementptr inbounds nuw %struct.PlannerInfo, ptr %19, i32 0, i32 67
  %21 = load i8, ptr %20, align 2, !range !7, !noundef !8
  %22 = trunc i8 %21 to i1
  br i1 %22, label %23, label %24

23:                                               ; preds = %1
  store i32 1, ptr %11, align 4
  br label %96

24:                                               ; preds = %1
  %25 = load ptr, ptr %4, align 8
  %26 = load ptr, ptr %3, align 8
  %27 = load ptr, ptr %4, align 8
  %28 = getelementptr inbounds nuw %struct.SetOperationStmt, ptr %27, i32 0, i32 5
  %29 = load ptr, ptr %28, align 8
  %30 = call zeroext i1 @is_simple_union_all_recurse(ptr noundef %25, ptr noundef %26, ptr noundef %29)
  br i1 %30, label %32, label %31

31:                                               ; preds = %24
  store i32 1, ptr %11, align 4
  br label %96

32:                                               ; preds = %24
  %33 = load ptr, ptr %4, align 8
  %34 = getelementptr inbounds nuw %struct.SetOperationStmt, ptr %33, i32 0, i32 3
  %35 = load ptr, ptr %34, align 8
  store ptr %35, ptr %5, align 8
  br label %36

36:                                               ; preds = %46, %32
  %37 = load ptr, ptr %5, align 8
  %38 = icmp ne ptr %37, null
  br i1 %38, label %39, label %44

39:                                               ; preds = %36
  %40 = load ptr, ptr %5, align 8
  %41 = getelementptr inbounds nuw %struct.Node, ptr %40, i32 0, i32 0
  %42 = load i32, ptr %41, align 4
  %43 = icmp eq i32 %42, 142
  br label %44

44:                                               ; preds = %39, %36
  %45 = phi i1 [ false, %36 ], [ %43, %39 ]
  br i1 %45, label %46, label %50

46:                                               ; preds = %44
  %47 = load ptr, ptr %5, align 8
  %48 = getelementptr inbounds nuw %struct.SetOperationStmt, ptr %47, i32 0, i32 3
  %49 = load ptr, ptr %48, align 8
  store ptr %49, ptr %5, align 8
  br label %36, !llvm.loop !14

50:                                               ; preds = %44
  %51 = load ptr, ptr %5, align 8
  %52 = getelementptr inbounds nuw %struct.RangeTblRef, ptr %51, i32 0, i32 1
  %53 = load i32, ptr %52, align 4
  store i32 %53, ptr %6, align 4
  %54 = load ptr, ptr %3, align 8
  %55 = getelementptr inbounds nuw %struct.Query, ptr %54, i32 0, i32 19
  %56 = load ptr, ptr %55, align 8
  %57 = load i32, ptr %6, align 4
  %58 = sub i32 %57, 1
  %59 = call ptr @list_nth(ptr noundef %56, i32 noundef %58)
  store ptr %59, ptr %7, align 8
  %60 = load ptr, ptr %7, align 8
  %61 = call ptr @copyObjectImpl(ptr noundef %60)
  store ptr %61, ptr %9, align 8
  %62 = load ptr, ptr %3, align 8
  %63 = getelementptr inbounds nuw %struct.Query, ptr %62, i32 0, i32 19
  %64 = load ptr, ptr %63, align 8
  %65 = load ptr, ptr %9, align 8
  %66 = call ptr @lappend(ptr noundef %64, ptr noundef %65)
  %67 = load ptr, ptr %3, align 8
  %68 = getelementptr inbounds nuw %struct.Query, ptr %67, i32 0, i32 19
  store ptr %66, ptr %68, align 8
  %69 = load ptr, ptr %3, align 8
  %70 = getelementptr inbounds nuw %struct.Query, ptr %69, i32 0, i32 19
  %71 = load ptr, ptr %70, align 8
  %72 = call i32 @list_length(ptr noundef %71)
  store i32 %72, ptr %8, align 4
  %73 = load i32, ptr %8, align 4
  %74 = load ptr, ptr %5, align 8
  %75 = getelementptr inbounds nuw %struct.RangeTblRef, ptr %74, i32 0, i32 1
  store i32 %73, ptr %75, align 4
  %76 = load ptr, ptr %7, align 8
  %77 = getelementptr inbounds nuw %struct.RangeTblEntry, ptr %76, i32 0, i32 5
  store i8 1, ptr %77, align 8
  %78 = call ptr @newNode(i64 noundef 8, i32 noundef 63)
  store ptr %78, ptr %10, align 8
  %79 = load i32, ptr %6, align 4
  %80 = load ptr, ptr %10, align 8
  %81 = getelementptr inbounds nuw %struct.RangeTblRef, ptr %80, i32 0, i32 1
  store i32 %79, ptr %81, align 4
  %82 = load ptr, ptr %10, align 8
  store ptr %82, ptr %12, align 8
  %83 = getelementptr inbounds nuw %union.ListCell, ptr %12, i32 0, i32 0
  %84 = load ptr, ptr %83, align 8
  %85 = call ptr @list_make1_impl(i32 noundef 1, ptr %84)
  %86 = load ptr, ptr %3, align 8
  %87 = getelementptr inbounds nuw %struct.Query, ptr %86, i32 0, i32 21
  %88 = load ptr, ptr %87, align 8
  %89 = getelementptr inbounds nuw %struct.FromExpr, ptr %88, i32 0, i32 1
  store ptr %85, ptr %89, align 8
  %90 = load ptr, ptr %3, align 8
  %91 = getelementptr inbounds nuw %struct.Query, ptr %90, i32 0, i32 42
  store ptr null, ptr %91, align 8
  %92 = load ptr, ptr %4, align 8
  %93 = load ptr, ptr %2, align 8
  %94 = load i32, ptr %6, align 4
  %95 = load ptr, ptr %3, align 8
  call void @pull_up_union_leaf_queries(ptr noundef %92, ptr noundef %93, i32 noundef %94, ptr noundef %95, i32 noundef 0)
  store i32 0, ptr %11, align 4
  br label %96

96:                                               ; preds = %50, %31, %23
  call void @llvm.lifetime.end.p0(i64 8, ptr %10) #8
  call void @llvm.lifetime.end.p0(i64 8, ptr %9) #8
  call void @llvm.lifetime.end.p0(i64 4, ptr %8) #8
  call void @llvm.lifetime.end.p0(i64 8, ptr %7) #8
  call void @llvm.lifetime.end.p0(i64 4, ptr %6) #8
  call void @llvm.lifetime.end.p0(i64 8, ptr %5) #8
  call void @llvm.lifetime.end.p0(i64 8, ptr %4) #8
  call void @llvm.lifetime.end.p0(i64 8, ptr %3) #8
  %97 = load i32, ptr %11, align 4
  switch i32 %97, label %99 [
    i32 0, label %98
    i32 1, label %98
  ]

98:                                               ; preds = %96, %96
  ret void

99:                                               ; preds = %96
  unreachable
}