; Function Attrs: nounwind uwtable
define dso_local void @flatten_simple_union_all(ptr noundef %0) local_unnamed_addr #0 {
  %2 = getelementptr inbounds nuw i8, ptr %0, i64 8
  %3 = load ptr, ptr %2, align 8
  %4 = getelementptr inbounds nuw i8, ptr %3, i64 248
  %5 = load ptr, ptr %4, align 8
  %6 = getelementptr inbounds nuw i8, ptr %0, i64 602
  %7 = load i8, ptr %6, align 2, !range !4, !noundef !5
  %8 = trunc nuw i8 %7 to i1
  br i1 %8, label %39, label %9

9:                                                ; preds = %1
  %10 = getelementptr inbounds nuw i8, ptr %5, i64 32
  %11 = load ptr, ptr %10, align 8
  %12 = tail call fastcc zeroext i1 @is_simple_union_all_recurse(ptr noundef %5, ptr noundef nonnull %3, ptr noundef %11)
  br i1 %12, label %.preheader, label %39

.preheader:                                       ; preds = %9, %13
  %.pn = phi ptr [ %.0, %13 ], [ %5, %9 ]
  %.0.in = getelementptr inbounds nuw i8, ptr %.pn, i64 16
  %.0 = load ptr, ptr %.0.in, align 8
  %.not = icmp eq ptr %.0, null
  br i1 %.not, label %.critedge, label %13

13:                                               ; preds = %.preheader
  %14 = load i32, ptr %.0, align 4
  %15 = icmp eq i32 %14, 142
  br i1 %15, label %.preheader, label %.critedge, !llvm.loop !9

.critedge:                                        ; preds = %.preheader, %13
  %16 = getelementptr inbounds nuw i8, ptr %.0, i64 4
  %17 = load i32, ptr %16, align 4
  %18 = getelementptr inbounds nuw i8, ptr %3, i64 64
  %19 = load ptr, ptr %18, align 8
  %20 = add i32 %17, -1
  %21 = getelementptr i8, ptr %19, i64 16
  %.val = load ptr, ptr %21, align 8
  %22 = sext i32 %20 to i64
  %23 = getelementptr inbounds %union.ListCell, ptr %.val, i64 %22
  %24 = load ptr, ptr %23, align 8
  %25 = tail call ptr @copyObjectImpl(ptr noundef %24) #7
  %26 = load ptr, ptr %18, align 8
  %27 = tail call ptr @lappend(ptr noundef %26, ptr noundef %25) #7
  store ptr %27, ptr %18, align 8
  %.not.i = icmp eq ptr %27, null
  br i1 %.not.i, label %list_length.exit, label %28

28:                                               ; preds = %.critedge
  %29 = getelementptr inbounds nuw i8, ptr %27, i64 4
  %30 = load i32, ptr %29, align 4
  br label %list_length.exit

list_length.exit:                                 ; preds = %.critedge, %28
  %31 = phi i32 [ %30, %28 ], [ 0, %.critedge ]
  store i32 %31, ptr %16, align 4
  %32 = getelementptr inbounds nuw i8, ptr %24, i64 32
  store i8 1, ptr %32, align 8
  %33 = tail call noundef ptr @palloc0(i64 noundef 8) #7
  store i32 63, ptr %33, align 4
  %34 = getelementptr inbounds nuw i8, ptr %33, i64 4
  store i32 %17, ptr %34, align 4
  %35 = tail call ptr @list_make1_impl(i32 noundef 1, ptr nonnull %33) #7
  %36 = getelementptr inbounds nuw i8, ptr %3, i64 80
  %37 = load ptr, ptr %36, align 8
  %38 = getelementptr inbounds nuw i8, ptr %37, i64 8
  store ptr %35, ptr %38, align 8
  store ptr null, ptr %4, align 8
  tail call fastcc void @pull_up_union_leaf_queries(ptr noundef %5, ptr noundef %0, i32 noundef %17, ptr noundef nonnull %3, i32 noundef 0)
  br label %39

39:                                               ; preds = %9, %1, %list_length.exit
  ret void
}